target datalayout = "e-m:e-p270:32:32-p271:32:32-p272:64:64-i64:64-i128:128-f80:128-n8:16:32:64-S128"
target triple = "x86_64-pc-linux-gnu"

@hf_mp4_full_box_ver = internal global i32 0, align 4
@hf_mp4_full_box_flags = internal global i32 0, align 4
@hf_mp4_tkhd_creat_time = internal global i32 0, align 4
@hf_mp4_tkhd_mod_time = internal global i32 0, align 4
@hf_mp4_tkhd_track_id = internal global i32 0, align 4
@hf_mp4_tkhd_duration = internal global i32 0, align 4
@hf_mp4_tkhd_width = internal global i32 0, align 4
@hf_mp4_tkhd_height = internal global i32 0, align 4
@ett_mp4_full_box_flags = internal global i32 0, align 4
@dissect_mp4_tkhd_body.flags = internal constant [5 x ptr] [ptr @hf_mp4_tkhd_flags_enabled, ptr @hf_mp4_tkhd_flags_in_movie, ptr @hf_mp4_tkhd_flags_in_preview, ptr @hf_mp4_tkhd_flags_size_is_aspect_ratio, ptr null], align 16

; Function Attrs: inlinehint nounwind null_pointer_is_valid sspstrong uwtable
define internal double @make_fract(i32 noundef %0) #3 {
  %2 = alloca double, align 8
  %3 = alloca i32, align 4
  store i32 %0, ptr %3, align 4
  %4 = load i32, ptr %3, align 4
  %5 = icmp eq i32 %4, 0
  br i1 %5, label %6, label %7

6:                                                ; preds = %1
  store double 0.000000e+00, ptr %2, align 8
  br label %21

7:                                                ; preds = %1
  %8 = load i32, ptr %3, align 4
  %9 = uitofp i32 %8 to double
  %10 = call double @log(double noundef 1.000000e+01) #7
  %11 = load i32, ptr %3, align 4
  %12 = uitofp i32 %11 to double
  %13 = call double @log(double noundef %12) #7
  %14 = call double @log(double noundef 1.000000e+01) #7
  %15 = fdiv double %13, %14
  %16 = call double @llvm.floor.f64(double %15)
  %17 = fadd double 1.000000e+00, %16
  %18 = fmul double %10, %17
  %19 = call double @exp(double noundef %18) #7
  %20 = fdiv double %9, %19
  store double %20, ptr %2, align 8
  br label %21

21:                                               ; preds = %7, %6
  %22 = load double, ptr %2, align 8
  ret double %22
}

; Function Attrs: null_pointer_is_valid sspstrong uwtable
define internal i32 @dissect_mp4_full_box(ptr noundef %0, i32 noundef %1, ptr noundef %2, ptr noundef %3, ptr noundef %4, ptr noundef %5) #0 {
  %7 = alloca ptr, align 8
  %8 = alloca i32, align 4
  %9 = alloca ptr, align 8
  %10 = alloca ptr, align 8
  %11 = alloca ptr, align 8
  %12 = alloca ptr, align 8
  store ptr %0, ptr %7, align 8
  store i32 %1, ptr %8, align 4
  store ptr %2, ptr %9, align 8
  store ptr %3, ptr %10, align 8
  store ptr %4, ptr %11, align 8
  store ptr %5, ptr %12, align 8
  %13 = load ptr, ptr %11, align 8
  %14 = icmp ne ptr %13, null
  br i1 %14, label %15, label %20

15:                                               ; preds = %6
  %16 = load ptr, ptr %7, align 8
  %17 = load i32, ptr %8, align 4
  %18 = call zeroext i8 @tvb_get_uint8(ptr noundef %16, i32 noundef %17)
  %19 = load ptr, ptr %11, align 8
  store i8 %18, ptr %19, align 1
  br label %20

20:                                               ; preds = %15, %6
  %21 = load ptr, ptr %9, align 8
  %22 = load i32, ptr @hf_mp4_full_box_ver, align 4
  %23 = load ptr, ptr %7, align 8
  %24 = load i32, ptr %8, align 4
  %25 = call ptr @proto_tree_add_item(ptr noundef %21, i32 noundef %22, ptr noundef %23, i32 noundef %24, i32 noundef 1, i32 noundef 0)
  %26 = load i32, ptr %8, align 4
  %27 = add i32 %26, 1
  store i32 %27, ptr %8, align 4
  %28 = load ptr, ptr %12, align 8
  %29 = icmp ne ptr %28, null
  br i1 %29, label %30, label %35

30:                                               ; preds = %20
  %31 = load ptr, ptr %7, align 8
  %32 = load i32, ptr %8, align 4
  %33 = call i32 @tvb_get_ntoh24(ptr noundef %31, i32 noundef %32)
  %34 = load ptr, ptr %12, align 8
  store i32 %33, ptr %34, align 4
  br label %35

35:                                               ; preds = %30, %20
  %36 = load ptr, ptr %10, align 8
  %37 = icmp ne ptr %36, null
  br i1 %37, label %38, label %46

38:                                               ; preds = %35
  %39 = load ptr, ptr %9, align 8
  %40 = load ptr, ptr %7, align 8
  %41 = load i32, ptr %8, align 4
  %42 = load i32, ptr @hf_mp4_full_box_flags, align 4
  %43 = load i32, ptr @ett_mp4_full_box_flags, align 4
  %44 = load ptr, ptr %10, align 8
  %45 = call ptr @proto_tree_add_bitmask(ptr noundef %39, ptr noundef %40, i32 noundef %41, i32 noundef %42, i32 noundef %43, ptr noundef %44, i32 noundef 0)
  br label %52

46:                                               ; preds = %35
  %47 = load ptr, ptr %9, align 8
  %48 = load i32, ptr @hf_mp4_full_box_flags, align 4
  %49 = load ptr, ptr %7, align 8
  %50 = load i32, ptr %8, align 4
  %51 = call ptr @proto_tree_add_item(ptr noundef %47, i32 noundef %48, ptr noundef %49, i32 noundef %50, i32 noundef 3, i32 noundef 0)
  br label %52

52:                                               ; preds = %46, %38
  ret i32 4
}

; Function Attrs: null_pointer_is_valid sspstrong uwtable
define internal i32 @dissect_mp4_tkhd_body(ptr noundef %0, i32 noundef %1, i32 noundef %2, ptr noundef %3, i32 noundef %4, ptr noundef %5) #0 {
  %7 = alloca ptr, align 8
  %8 = alloca i32, align 4
  %9 = alloca i32, align 4
  %10 = alloca ptr, align 8
  %11 = alloca i32, align 4
  %12 = alloca ptr, align 8
  %13 = alloca i32, align 4
  %14 = alloca i8, align 1
  %15 = alloca i8, align 1
  %16 = alloca double, align 8
  %17 = alloca double, align 8
  %18 = alloca i16, align 2
  store ptr %0, ptr %7, align 8
  store i32 %1, ptr %8, align 4
  store i32 %2, ptr %9, align 4
  store ptr %3, ptr %10, align 8
  store i32 %4, ptr %11, align 4
  store ptr %5, ptr %12, align 8
  call void @llvm.lifetime.start.p0(i64 4, ptr %13) #7
  call void @llvm.lifetime.start.p0(i64 1, ptr %14) #7
  call void @llvm.lifetime.start.p0(i64 1, ptr %15) #7
  call void @llvm.lifetime.start.p0(i64 8, ptr %16) #7
  call void @llvm.lifetime.start.p0(i64 8, ptr %17) #7
  call void @llvm.lifetime.start.p0(i64 2, ptr %18) #7
  %19 = load i32, ptr %8, align 4
  store i32 %19, ptr %13, align 4
  %20 = load ptr, ptr %7, align 8
  %21 = load i32, ptr %8, align 4
  %22 = load ptr, ptr %12, align 8
  %23 = call i32 @dissect_mp4_full_box(ptr noundef %20, i32 noundef %21, ptr noundef %22, ptr noundef @dissect_mp4_tkhd_body.flags, ptr noundef %14, ptr noundef null)
  %24 = load i32, ptr %8, align 4
  %25 = add i32 %24, %23
  store i32 %25, ptr %8, align 4
  %26 = load i8, ptr %14, align 1
  %27 = zext i8 %26 to i32
  %28 = icmp eq i32 %27, 0
  %29 = select i1 %28, i32 4, i32 8
  %30 = trunc i32 %29 to i8
  store i8 %30, ptr %15, align 1
  %31 = load ptr, ptr %12, align 8
  %32 = load i32, ptr @hf_mp4_tkhd_creat_time, align 4
  %33 = load ptr, ptr %7, align 8
  %34 = load i32, ptr %8, align 4
  %35 = load i8, ptr %15, align 1
  %36 = zext i8 %35 to i32
  %37 = call ptr @proto_tree_add_item(ptr noundef %31, i32 noundef %32, ptr noundef %33, i32 noundef %34, i32 noundef %36, i32 noundef 38)
  %38 = load i8, ptr %15, align 1
  %39 = zext i8 %38 to i32
  %40 = load i32, ptr %8, align 4
  %41 = add i32 %40, %39
  store i32 %41, ptr %8, align 4
  %42 = load ptr, ptr %12, align 8
  %43 = load i32, ptr @hf_mp4_tkhd_mod_time, align 4
  %44 = load ptr, ptr %7, align 8
  %45 = load i32, ptr %8, align 4
  %46 = load i8, ptr %15, align 1
  %47 = zext i8 %46 to i32
  %48 = call ptr @proto_tree_add_item(ptr noundef %42, i32 noundef %43, ptr noundef %44, i32 noundef %45, i32 noundef %47, i32 noundef 38)
  %49 = load i8, ptr %15, align 1
  %50 = zext i8 %49 to i32
  %51 = load i32, ptr %8, align 4
  %52 = add i32 %51, %50
  store i32 %52, ptr %8, align 4
  %53 = load ptr, ptr %12, align 8
  %54 = load i32, ptr @hf_mp4_tkhd_track_id, align 4
  %55 = load ptr, ptr %7, align 8
  %56 = load i32, ptr %8, align 4
  %57 = call ptr @proto_tree_add_item(ptr noundef %53, i32 noundef %54, ptr noundef %55, i32 noundef %56, i32 noundef 4, i32 noundef 0)
  %58 = load i32, ptr %8, align 4
  %59 = add i32 %58, 4
  store i32 %59, ptr %8, align 4
  %60 = load i32, ptr %8, align 4
  %61 = add i32 %60, 4
  store i32 %61, ptr %8, align 4
  %62 = load ptr, ptr %12, align 8
  %63 = load i32, ptr @hf_mp4_tkhd_duration, align 4
  %64 = load ptr, ptr %7, align 8
  %65 = load i32, ptr %8, align 4
  %66 = load i8, ptr %15, align 1
  %67 = zext i8 %66 to i32
  %68 = call ptr @proto_tree_add_item(ptr noundef %62, i32 noundef %63, ptr noundef %64, i32 noundef %65, i32 noundef %67, i32 noundef 0)
  %69 = load i8, ptr %15, align 1
  %70 = zext i8 %69 to i32
  %71 = load i32, ptr %8, align 4
  %72 = add i32 %71, %70
  store i32 %72, ptr %8, align 4
  %73 = load i32, ptr %8, align 4
  %74 = add i32 %73, 8
  store i32 %74, ptr %8, align 4
  %75 = load i32, ptr %8, align 4
  %76 = add i32 %75, 2
  store i32 %76, ptr %8, align 4
  %77 = load i32, ptr %8, align 4
  %78 = add i32 %77, 2
  store i32 %78, ptr %8, align 4
  %79 = load i32, ptr %8, align 4
  %80 = add i32 %79, 2
  store i32 %80, ptr %8, align 4
  %81 = load i32, ptr %8, align 4
  %82 = add i32 %81, 2
  store i32 %82, ptr %8, align 4
  %83 = load i32, ptr %8, align 4
  %84 = add i32 %83, 36
  store i32 %84, ptr %8, align 4
  %85 = load ptr, ptr %7, align 8
  %86 = load i32, ptr %8, align 4
  %87 = call zeroext i16 @tvb_get_ntohs(ptr noundef %85, i32 noundef %86)
  %88 = uitofp i16 %87 to double
  store double %88, ptr %16, align 8
  %89 = load ptr, ptr %7, align 8
  %90 = load i32, ptr %8, align 4
  %91 = add i32 %90, 2
  %92 = call zeroext i16 @tvb_get_ntohs(ptr noundef %89, i32 noundef %91)
  store i16 %92, ptr %18, align 2
  %93 = load i16, ptr %18, align 2
  %94 = zext i16 %93 to i32
  %95 = call double @make_fract(i32 noundef %94)
  %96 = load double, ptr %16, align 8
  %97 = fadd double %96, %95
  store double %97, ptr %16, align 8
  %98 = load ptr, ptr %12, align 8
  %99 = load i32, ptr @hf_mp4_tkhd_width, align 4
  %100 = load ptr, ptr %7, align 8
  %101 = load i32, ptr %8, align 4
  %102 = load double, ptr %16, align 8
  %103 = call ptr @proto_tree_add_double(ptr noundef %98, i32 noundef %99, ptr noundef %100, i32 noundef %101, i32 noundef 4, double noundef %102)
  %104 = load i32, ptr %8, align 4
  %105 = add i32 %104, 4
  store i32 %105, ptr %8, align 4
  %106 = load ptr, ptr %7, align 8
  %107 = load i32, ptr %8, align 4
  %108 = call zeroext i16 @tvb_get_ntohs(ptr noundef %106, i32 noundef %107)
  %109 = uitofp i16 %108 to double
  store double %109, ptr %17, align 8
  %110 = load ptr, ptr %7, align 8
  %111 = load i32, ptr %8, align 4
  %112 = add i32 %111, 2
  %113 = call zeroext i16 @tvb_get_ntohs(ptr noundef %110, i32 noundef %112)
  store i16 %113, ptr %18, align 2
  %114 = load i16, ptr %18, align 2
  %115 = zext i16 %114 to i32
  %116 = call double @make_fract(i32 noundef %115)
  %117 = load double, ptr %17, align 8
  %118 = fadd double %117, %116
  store double %118, ptr %17, align 8
  %119 = load ptr, ptr %12, align 8
  %120 = load i32, ptr @hf_mp4_tkhd_height, align 4
  %121 = load ptr, ptr %7, align 8
  %122 = load i32, ptr %8, align 4
  %123 = load double, ptr %17, align 8
  %124 = call ptr @proto_tree_add_double(ptr noundef %119, i32 noundef %120, ptr noundef %121, i32 noundef %122, i32 noundef 4, double noundef %123)
  %125 = load i32, ptr %8, align 4
  %126 = add i32 %125, 4
  store i32 %126, ptr %8, align 4
  %127 = load i32, ptr %8, align 4
  %128 = load i32, ptr %13, align 4
  %129 = sub i32 %127, %128
  call void @llvm.lifetime.end.p0(i64 2, ptr %18) #7
  call void @llvm.lifetime.end.p0(i64 8, ptr %17) #7
  call void @llvm.lifetime.end.p0(i64 8, ptr %16) #7
  call void @llvm.lifetime.end.p0(i64 1, ptr %15) #7
  call void @llvm.lifetime.end.p0(i64 1, ptr %14) #7
  call void @llvm.lifetime.end.p0(i64 4, ptr %13) #7
  ret i32 %129
}