; Function Attrs: null_pointer_is_valid sspstrong uwtable
define internal fastcc void @dissect_mp4_tkhd_body(ptr noundef %0, i32 noundef %1, ptr noundef %2) unnamed_addr #0 {
  %4 = tail call zeroext i8 @tvb_get_uint8(ptr noundef %0, i32 noundef %1)
  %5 = load i32, ptr @hf_mp4_full_box_ver, align 4
  %6 = tail call ptr @proto_tree_add_item(ptr noundef %2, i32 noundef %5, ptr noundef %0, i32 noundef %1, i32 noundef 1, i32 noundef 0)
  %7 = add i32 %1, 1
  %8 = load i32, ptr @hf_mp4_full_box_flags, align 4
  %9 = load i32, ptr @ett_mp4_full_box_flags, align 4
  %10 = tail call ptr @proto_tree_add_bitmask(ptr noundef %2, ptr noundef %0, i32 noundef %7, i32 noundef %8, i32 noundef %9, ptr noundef nonnull @dissect_mp4_tkhd_body.flags, i32 noundef 0)
  %11 = add i32 %1, 4
  %12 = icmp eq i8 %4, 0
  %13 = select i1 %12, i32 4, i32 8
  %14 = load i32, ptr @hf_mp4_tkhd_creat_time, align 4
  %15 = tail call ptr @proto_tree_add_item(ptr noundef %2, i32 noundef %14, ptr noundef %0, i32 noundef %11, i32 noundef %13, i32 noundef 38)
  %16 = add i32 %13, %11
  %17 = load i32, ptr @hf_mp4_tkhd_mod_time, align 4
  %18 = tail call ptr @proto_tree_add_item(ptr noundef %2, i32 noundef %17, ptr noundef %0, i32 noundef %16, i32 noundef %13, i32 noundef 38)
  %19 = add i32 %16, %13
  %20 = load i32, ptr @hf_mp4_tkhd_track_id, align 4
  %21 = tail call ptr @proto_tree_add_item(ptr noundef %2, i32 noundef %20, ptr noundef %0, i32 noundef %19, i32 noundef 4, i32 noundef 0)
  %22 = add i32 %19, 8
  %23 = load i32, ptr @hf_mp4_tkhd_duration, align 4
  %24 = tail call ptr @proto_tree_add_item(ptr noundef %2, i32 noundef %23, ptr noundef %0, i32 noundef %22, i32 noundef %13, i32 noundef 0)
  %25 = add i32 %22, %13
  %26 = add i32 %25, 52
  %27 = tail call zeroext i16 @tvb_get_ntohs(ptr noundef %0, i32 noundef %26)
  %28 = uitofp i16 %27 to double
  %29 = add i32 %25, 54
  %30 = tail call zeroext i16 @tvb_get_ntohs(ptr noundef %0, i32 noundef %29)
  %31 = icmp eq i16 %30, 0
  br i1 %31, label %make_fract.exit, label %32

32:                                               ; preds = %3
  %33 = uitofp i16 %30 to double
  %34 = tail call double @log(double noundef %33) #5
  %35 = fdiv double %34, 0x40026BB1BBB55516
  %36 = tail call double @llvm.floor.f64(double %35)
  %37 = fadd double %36, 1.000000e+00
  %38 = fmul double %37, 0x40026BB1BBB55516
  %39 = tail call double @exp(double noundef %38) #5
  %40 = fdiv double %33, %39
  br label %make_fract.exit

make_fract.exit:                                  ; preds = %3, %32
  %.0.i = phi double [ %40, %32 ], [ 0.000000e+00, %3 ]
  %41 = fadd double %.0.i, %28
  %42 = load i32, ptr @hf_mp4_tkhd_width, align 4
  %43 = tail call ptr @proto_tree_add_double(ptr noundef %2, i32 noundef %42, ptr noundef %0, i32 noundef %26, i32 noundef 4, double noundef %41)
  %44 = add i32 %25, 56
  %45 = tail call zeroext i16 @tvb_get_ntohs(ptr noundef %0, i32 noundef %44)
  %46 = add i32 %25, 58
  %47 = tail call zeroext i16 @tvb_get_ntohs(ptr noundef %0, i32 noundef %46)
  %48 = icmp eq i16 %47, 0
  br i1 %48, label %make_fract.exit58, label %49

49:                                               ; preds = %make_fract.exit
  %50 = uitofp i16 %47 to double
  %51 = tail call double @log(double noundef %50) #5
  %52 = fdiv double %51, 0x40026BB1BBB55516
  %53 = tail call double @llvm.floor.f64(double %52)
  %54 = fadd double %53, 1.000000e+00
  %55 = fmul double %54, 0x40026BB1BBB55516
  %56 = tail call double @exp(double noundef %55) #5
  %57 = fdiv double %50, %56
  br label %make_fract.exit58

make_fract.exit58:                                ; preds = %make_fract.exit, %49
  %.0.i57 = phi double [ %57, %49 ], [ 0.000000e+00, %make_fract.exit ]
  %58 = uitofp i16 %45 to double
  %59 = fadd double %.0.i57, %58
  %60 = load i32, ptr @hf_mp4_tkhd_height, align 4
  %61 = tail call ptr @proto_tree_add_double(ptr noundef %2, i32 noundef %60, ptr noundef %0, i32 noundef %44, i32 noundef 4, double noundef %59)
  ret void
}